; Function Attrs: mustprogress nounwind uwtable
define noundef zeroext i1 @_ZNK32pxrInternal_v0_24__pxrReserved__17SdfPathExpression33ContainsWeakerExpressionReferenceEv(ptr nocapture noundef nonnull readonly align 8 dereferenceable(104) %0) local_unnamed_addr #5 align 2 {
  %2 = getelementptr inbounds nuw i8, ptr %0, i64 24
  %3 = load ptr, ptr %2, align 8
  %4 = getelementptr inbounds i8, ptr %0, i64 32
  %5 = load ptr, ptr %4, align 8
  %.not = icmp eq ptr %3, %5
  br i1 %.not, label %._crit_edge, label %.lr.ph

.lr.ph:                                           ; preds = %1, %.lr.ph
  %.sroa.05.08 = phi ptr [ %9, %.lr.ph ], [ %3, %1 ]
  %6 = getelementptr inbounds nuw i8, ptr %.sroa.05.08, i64 8
  %7 = tail call noundef i32 @_ZNKSt7__cxx1112basic_stringIcSt11char_traitsIcESaIcEE7compareEPKc(ptr noundef nonnull align 8 dereferenceable(32) %6, ptr noundef nonnull @.str.4) #24
  %8 = icmp eq i32 %7, 0
  %9 = getelementptr inbounds i8, ptr %.sroa.05.08, i64 40
  %.not11 = icmp eq ptr %9, %5
  %or.cond = select i1 %8, i1 true, i1 %.not11
  br i1 %or.cond, label %._crit_edge, label %.lr.ph

._crit_edge:                                      ; preds = %.lr.ph, %1
  %.lcssa = phi i1 [ false, %1 ], [ %8, %.lr.ph ]
  ret i1 %.lcssa
}